target datalayout = "e-m:e-p270:32:32-p271:32:32-p272:64:64-i64:64-i128:128-f80:128-n8:16:32:64-S128"
target triple = "x86_64-pc-linux-gnu"

; Function Attrs: nounwind uwtable
define internal i32 @tcache_destroy_ctl(ptr noundef %0, ptr noundef %1, i64 noundef %2, ptr noundef %3, ptr noundef %4, ptr noundef %5, i64 noundef %6) #0 {
  %8 = alloca ptr, align 8
  %9 = alloca ptr, align 8
  %10 = alloca i64, align 8
  %11 = alloca ptr, align 8
  %12 = alloca ptr, align 8
  %13 = alloca ptr, align 8
  %14 = alloca i64, align 8
  %15 = alloca i32, align 4
  %16 = alloca i32, align 4
  store ptr %0, ptr %8, align 8, !tbaa !4
  store ptr %1, ptr %9, align 8, !tbaa !12
  store i64 %2, ptr %10, align 8, !tbaa !14
  store ptr %3, ptr %11, align 8, !tbaa !11
  store ptr %4, ptr %12, align 8, !tbaa !12
  store ptr %5, ptr %13, align 8, !tbaa !11
  store i64 %6, ptr %14, align 8, !tbaa !14
  call void @llvm.lifetime.start.p0(i64 4, ptr %15) #13
  call void @llvm.lifetime.start.p0(i64 4, ptr %16) #13
  br label %17

17:                                               ; preds = %7
  %18 = load ptr, ptr %11, align 8, !tbaa !11
  %19 = icmp ne ptr %18, null
  br i1 %19, label %23, label %20

20:                                               ; preds = %17
  %21 = load ptr, ptr %12, align 8, !tbaa !12
  %22 = icmp ne ptr %21, null
  br i1 %22, label %23, label %24

23:                                               ; preds = %20, %17
  store i32 1, ptr %15, align 4, !tbaa !20
  br label %41

24:                                               ; preds = %20
  br label %25

25:                                               ; preds = %24
  br label %26

26:                                               ; preds = %25
  br label %27

27:                                               ; preds = %26
  %28 = load ptr, ptr %13, align 8, !tbaa !11
  %29 = icmp eq ptr %28, null
  br i1 %29, label %33, label %30

30:                                               ; preds = %27
  %31 = load i64, ptr %14, align 8, !tbaa !14
  %32 = icmp ne i64 %31, 4
  br i1 %32, label %33, label %34

33:                                               ; preds = %30, %27
  store i32 22, ptr %15, align 4, !tbaa !20
  br label %41

34:                                               ; preds = %30
  %35 = load ptr, ptr %13, align 8, !tbaa !11
  %36 = load i32, ptr %35, align 4, !tbaa !20
  store i32 %36, ptr %16, align 4, !tbaa !20
  br label %37

37:                                               ; preds = %34
  br label %38

38:                                               ; preds = %37
  %39 = load ptr, ptr %8, align 8, !tbaa !4
  %40 = load i32, ptr %16, align 4, !tbaa !20
  call void @je_tcaches_destroy(ptr noundef %39, i32 noundef %40)
  store i32 0, ptr %15, align 4, !tbaa !20
  br label %41

41:                                               ; preds = %38, %33, %23
  %42 = load i32, ptr %15, align 4, !tbaa !20
  call void @llvm.lifetime.end.p0(i64 4, ptr %16) #13
  call void @llvm.lifetime.end.p0(i64 4, ptr %15) #13
  ret i32 %42
}